target datalayout = "e-m:e-p270:32:32-p271:32:32-p272:64:64-i64:64-i128:128-f80:128-n8:16:32:64-S128"
target triple = "x86_64-pc-linux-gnu"

%struct.zstream = type { i64, i64, i64, i64, %struct.z_stream_s, ptr }
%struct.z_stream_s = type { ptr, i32, i64, ptr, i32, i64, ptr, ptr, ptr, ptr, ptr, i32, i64, i64 }
%struct.RString = type { %struct.RBasic, i64, %union.anon }
%struct.RBasic = type { i64, i64 }
%union.anon = type { %struct.anon }
%struct.anon = type { ptr, %union.anon.0 }
%union.anon.0 = type { i64 }
%struct.anon.1 = type { [1 x i8] }

; Function Attrs: inlinehint nounwind sspstrong willreturn memory(read) uwtable
define internal i64 @RB_FL_TEST_RAW(i64 noundef %0, i64 noundef %1) #6 {
  %3 = alloca i64, align 8
  %4 = alloca i64, align 8
  store i64 %0, ptr %3, align 8, !tbaa !6
  store i64 %1, ptr %4, align 8, !tbaa !6
  %5 = load i64, ptr %3, align 8, !tbaa !6
  %6 = inttoptr i64 %5 to ptr
  %7 = getelementptr inbounds nuw %struct.RBasic, ptr %6, i32 0, i32 0
  %8 = load i64, ptr %7, align 8, !tbaa !91
  %9 = load i64, ptr %4, align 8, !tbaa !6
  %10 = and i64 %8, %9
  ret i64 %10
}

; Function Attrs: inlinehint nounwind sspstrong willreturn memory(read) uwtable
define internal zeroext i1 @RB_FL_ANY_RAW(i64 noundef %0, i64 noundef %1) #6 {
  %3 = alloca i64, align 8
  %4 = alloca i64, align 8
  store i64 %0, ptr %3, align 8, !tbaa !6
  store i64 %1, ptr %4, align 8, !tbaa !6
  %5 = load i64, ptr %3, align 8, !tbaa !6
  %6 = load i64, ptr %4, align 8, !tbaa !6
  %7 = call i64 @RB_FL_TEST_RAW(i64 noundef %5, i64 noundef %6) #25
  %8 = icmp ne i64 %7, 0
  ret i1 %8
}

; Function Attrs: inlinehint nounwind sspstrong willreturn memory(read, argmem: readwrite) uwtable
define internal void @rbimpl_rstring_getmem(ptr dead_on_unwind noalias writable sret(%struct.RString) align 8 %0, i64 noundef %1) #9 {
  %3 = alloca i64, align 8
  store i64 %1, ptr %3, align 8, !tbaa !6
  %4 = load i64, ptr %3, align 8, !tbaa !6
  %5 = call zeroext i1 @RB_FL_ANY_RAW(i64 noundef %4, i64 noundef 8192) #25
  br i1 %5, label %6, label %9

6:                                                ; preds = %2
  %7 = load i64, ptr %3, align 8, !tbaa !6
  %8 = inttoptr i64 %7 to ptr
  call void @llvm.memcpy.p0.p0.i64(ptr align 8 %0, ptr align 8 %8, i64 40, i1 false), !tbaa.struct !92
  br label %20

9:                                                ; preds = %2
  %10 = load i64, ptr %3, align 8, !tbaa !6
  %11 = call i64 @RSTRING_LEN(i64 noundef %10) #25
  %12 = getelementptr inbounds nuw %struct.RString, ptr %0, i32 0, i32 1
  store i64 %11, ptr %12, align 8, !tbaa !88
  %13 = load i64, ptr %3, align 8, !tbaa !6
  %14 = inttoptr i64 %13 to ptr
  %15 = getelementptr inbounds nuw %struct.RString, ptr %14, i32 0, i32 2
  %16 = getelementptr inbounds nuw %struct.anon.1, ptr %15, i32 0, i32 0
  %17 = getelementptr inbounds [1 x i8], ptr %16, i64 0, i64 0
  %18 = getelementptr inbounds nuw %struct.RString, ptr %0, i32 0, i32 2
  %19 = getelementptr inbounds nuw %struct.anon, ptr %18, i32 0, i32 0
  store ptr %17, ptr %19, align 8, !tbaa !68
  br label %20

20:                                               ; preds = %9, %6
  ret void
}

; Function Attrs: inlinehint nounwind sspstrong uwtable
define internal ptr @RSTRING_END(i64 noundef %0) #3 {
  %2 = alloca i64, align 8
  %3 = alloca %struct.RString, align 8
  store i64 %0, ptr %2, align 8, !tbaa !6
  call void @llvm.lifetime.start.p0(i64 40, ptr %3) #23
  %4 = load i64, ptr %2, align 8, !tbaa !6
  call void @rbimpl_rstring_getmem(ptr dead_on_unwind writable sret(%struct.RString) align 8 %3, i64 noundef %4) #28
  %5 = getelementptr inbounds nuw %struct.RString, ptr %3, i32 0, i32 2
  %6 = getelementptr inbounds nuw %struct.anon, ptr %5, i32 0, i32 0
  %7 = load ptr, ptr %6, align 8, !tbaa !68
  %8 = getelementptr inbounds nuw %struct.RString, ptr %3, i32 0, i32 1
  %9 = load i64, ptr %8, align 8, !tbaa !88
  %10 = getelementptr inbounds i8, ptr %7, i64 %9
  call void @llvm.lifetime.end.p0(i64 40, ptr %3) #23
  ret ptr %10
}

; Function Attrs: inlinehint nounwind sspstrong willreturn memory(read) uwtable
define internal i64 @RSTRING_LEN(i64 noundef %0) #6 {
  %2 = alloca i64, align 8
  store i64 %0, ptr %2, align 8, !tbaa !6
  %3 = load i64, ptr %2, align 8, !tbaa !6
  %4 = inttoptr i64 %3 to ptr
  %5 = getelementptr inbounds nuw %struct.RString, ptr %4, i32 0, i32 1
  %6 = load i64, ptr %5, align 8, !tbaa !88
  ret i64 %6
}

; Function Attrs: inlinehint nounwind sspstrong uwtable
define internal ptr @RSTRING_PTR(i64 noundef %0) #3 {
  %2 = alloca i64, align 8
  %3 = alloca ptr, align 8
  %4 = alloca %struct.RString, align 8
  store i64 %0, ptr %2, align 8, !tbaa !6
  call void @llvm.lifetime.start.p0(i64 8, ptr %3) #23
  %5 = load i64, ptr %2, align 8, !tbaa !6
  call void @rbimpl_rstring_getmem(ptr dead_on_unwind writable sret(%struct.RString) align 8 %4, i64 noundef %5) #28
  %6 = getelementptr inbounds nuw %struct.RString, ptr %4, i32 0, i32 2
  %7 = getelementptr inbounds nuw %struct.anon, ptr %6, i32 0, i32 0
  %8 = load ptr, ptr %7, align 8, !tbaa !68
  store ptr %8, ptr %3, align 8, !tbaa !19
  %9 = load ptr, ptr %3, align 8, !tbaa !19
  call void @llvm.lifetime.end.p0(i64 8, ptr %3) #23
  ret ptr %9
}

; Function Attrs: inlinehint nounwind sspstrong willreturn memory(none) uwtable
define internal zeroext i1 @RB_NIL_P(i64 noundef %0) #5 {
  %2 = alloca i64, align 8
  store i64 %0, ptr %2, align 8, !tbaa !6
  %3 = load i64, ptr %2, align 8, !tbaa !6
  %4 = icmp eq i64 %3, 4
  ret i1 %4
}

; Function Attrs: nounwind sspstrong uwtable
define internal void @zstream_append_buffer(ptr noundef %0, ptr noundef %1, i64 noundef %2) #0 {
  %4 = alloca ptr, align 8
  %5 = alloca ptr, align 8
  %6 = alloca i64, align 8
  store ptr %0, ptr %4, align 8, !tbaa !21
  store ptr %1, ptr %5, align 8, !tbaa !19
  store i64 %2, ptr %6, align 8, !tbaa !6
  %7 = load ptr, ptr %4, align 8, !tbaa !21
  %8 = getelementptr inbounds nuw %struct.zstream, ptr %7, i32 0, i32 1
  %9 = load i64, ptr %8, align 8, !tbaa !35
  %10 = call zeroext i1 @RB_NIL_P(i64 noundef %9) #24
  br i1 %10, label %11, label %36

11:                                               ; preds = %3
  %12 = load i64, ptr %6, align 8, !tbaa !6
  %13 = call i64 @rb_str_buf_new(i64 noundef %12)
  %14 = load ptr, ptr %4, align 8, !tbaa !21
  %15 = getelementptr inbounds nuw %struct.zstream, ptr %14, i32 0, i32 1
  store i64 %13, ptr %15, align 8, !tbaa !35
  %16 = load ptr, ptr %4, align 8, !tbaa !21
  %17 = getelementptr inbounds nuw %struct.zstream, ptr %16, i32 0, i32 1
  %18 = load i64, ptr %17, align 8, !tbaa !35
  %19 = load ptr, ptr %5, align 8, !tbaa !19
  %20 = load i64, ptr %6, align 8, !tbaa !6
  %21 = call i64 @rb_str_cat(i64 noundef %18, ptr noundef %19, i64 noundef %20)
  %22 = load ptr, ptr %4, align 8, !tbaa !21
  %23 = getelementptr inbounds nuw %struct.zstream, ptr %22, i32 0, i32 1
  %24 = load i64, ptr %23, align 8, !tbaa !35
  %25 = call ptr @RSTRING_PTR(i64 noundef %24)
  %26 = load ptr, ptr %4, align 8, !tbaa !21
  %27 = getelementptr inbounds nuw %struct.zstream, ptr %26, i32 0, i32 4
  %28 = getelementptr inbounds nuw %struct.z_stream_s, ptr %27, i32 0, i32 3
  store ptr %25, ptr %28, align 8, !tbaa !96
  %29 = load ptr, ptr %4, align 8, !tbaa !21
  %30 = getelementptr inbounds nuw %struct.zstream, ptr %29, i32 0, i32 4
  %31 = getelementptr inbounds nuw %struct.z_stream_s, ptr %30, i32 0, i32 4
  store i32 0, ptr %31, align 8, !tbaa !23
  %32 = load ptr, ptr %4, align 8, !tbaa !21
  %33 = getelementptr inbounds nuw %struct.zstream, ptr %32, i32 0, i32 1
  %34 = load i64, ptr %33, align 8, !tbaa !35
  %35 = call i64 @rb_obj_hide(i64 noundef %34)
  br label %99

36:                                               ; preds = %3
  %37 = load ptr, ptr %4, align 8, !tbaa !21
  %38 = getelementptr inbounds nuw %struct.zstream, ptr %37, i32 0, i32 1
  %39 = load i64, ptr %38, align 8, !tbaa !35
  %40 = call i64 @rb_str_capacity(i64 noundef %39) #25
  %41 = load ptr, ptr %4, align 8, !tbaa !21
  %42 = getelementptr inbounds nuw %struct.zstream, ptr %41, i32 0, i32 1
  %43 = load i64, ptr %42, align 8, !tbaa !35
  %44 = call zeroext i1 @RB_NIL_P(i64 noundef %43) #24
  br i1 %44, label %45, label %46

45:                                               ; preds = %36
  br label %51

46:                                               ; preds = %36
  %47 = load ptr, ptr %4, align 8, !tbaa !21
  %48 = getelementptr inbounds nuw %struct.zstream, ptr %47, i32 0, i32 1
  %49 = load i64, ptr %48, align 8, !tbaa !35
  %50 = call i64 @RSTRING_LEN(i64 noundef %49) #25
  br label %51

51:                                               ; preds = %46, %45
  %52 = phi i64 [ 0, %45 ], [ %50, %46 ]
  %53 = load i64, ptr %6, align 8, !tbaa !6
  %54 = add nsw i64 %52, %53
  %55 = icmp slt i64 %40, %54
  br i1 %55, label %56, label %64

56:                                               ; preds = %51
  %57 = load ptr, ptr %4, align 8, !tbaa !21
  %58 = getelementptr inbounds nuw %struct.zstream, ptr %57, i32 0, i32 1
  %59 = load i64, ptr %58, align 8, !tbaa !35
  %60 = load i64, ptr %6, align 8, !tbaa !6
  call void @rb_str_modify_expand(i64 noundef %59, i64 noundef %60)
  %61 = load ptr, ptr %4, align 8, !tbaa !21
  %62 = getelementptr inbounds nuw %struct.zstream, ptr %61, i32 0, i32 4
  %63 = getelementptr inbounds nuw %struct.z_stream_s, ptr %62, i32 0, i32 4
  store i32 0, ptr %63, align 8, !tbaa !23
  br label %85

64:                                               ; preds = %51
  %65 = load ptr, ptr %4, align 8, !tbaa !21
  %66 = getelementptr inbounds nuw %struct.zstream, ptr %65, i32 0, i32 4
  %67 = getelementptr inbounds nuw %struct.z_stream_s, ptr %66, i32 0, i32 4
  %68 = load i32, ptr %67, align 8, !tbaa !23
  %69 = load i64, ptr %6, align 8, !tbaa !6
  %70 = trunc i64 %69 to i32
  %71 = icmp uge i32 %68, %70
  br i1 %71, label %72, label %80

72:                                               ; preds = %64
  %73 = load i64, ptr %6, align 8, !tbaa !6
  %74 = trunc i64 %73 to i32
  %75 = load ptr, ptr %4, align 8, !tbaa !21
  %76 = getelementptr inbounds nuw %struct.zstream, ptr %75, i32 0, i32 4
  %77 = getelementptr inbounds nuw %struct.z_stream_s, ptr %76, i32 0, i32 4
  %78 = load i32, ptr %77, align 8, !tbaa !23
  %79 = sub i32 %78, %74
  store i32 %79, ptr %77, align 8, !tbaa !23
  br label %84

80:                                               ; preds = %64
  %81 = load ptr, ptr %4, align 8, !tbaa !21
  %82 = getelementptr inbounds nuw %struct.zstream, ptr %81, i32 0, i32 4
  %83 = getelementptr inbounds nuw %struct.z_stream_s, ptr %82, i32 0, i32 4
  store i32 0, ptr %83, align 8, !tbaa !23
  br label %84

84:                                               ; preds = %80, %72
  br label %85

85:                                               ; preds = %84, %56
  %86 = load ptr, ptr %4, align 8, !tbaa !21
  %87 = getelementptr inbounds nuw %struct.zstream, ptr %86, i32 0, i32 1
  %88 = load i64, ptr %87, align 8, !tbaa !35
  %89 = load ptr, ptr %5, align 8, !tbaa !19
  %90 = load i64, ptr %6, align 8, !tbaa !6
  %91 = call i64 @rb_str_cat(i64 noundef %88, ptr noundef %89, i64 noundef %90)
  %92 = load ptr, ptr %4, align 8, !tbaa !21
  %93 = getelementptr inbounds nuw %struct.zstream, ptr %92, i32 0, i32 1
  %94 = load i64, ptr %93, align 8, !tbaa !35
  %95 = call ptr @RSTRING_END(i64 noundef %94)
  %96 = load ptr, ptr %4, align 8, !tbaa !21
  %97 = getelementptr inbounds nuw %struct.zstream, ptr %96, i32 0, i32 4
  %98 = getelementptr inbounds nuw %struct.z_stream_s, ptr %97, i32 0, i32 3
  store ptr %95, ptr %98, align 8, !tbaa !96
  br label %99

99:                                               ; preds = %85, %11
  ret void
}