; Function Attrs: nounwind sspstrong uwtable
define internal fastcc void @zstream_append_buffer(ptr noundef captures(none) initializes((56, 64)) %0, ptr noundef %1, i64 noundef %2) unnamed_addr #0 {
  %4 = getelementptr inbounds nuw i8, ptr %0, i64 8
  %5 = load i64, ptr %4, align 8, !tbaa !43
  %6 = icmp eq i64 %5, 4
  br i1 %6, label %7, label %19

7:                                                ; preds = %3
  %8 = tail call i64 @rb_str_buf_new(i64 noundef %2) #18
  store i64 %8, ptr %4, align 8, !tbaa !43
  %9 = tail call i64 @rb_str_cat(i64 noundef %8, ptr noundef %1, i64 noundef %2) #18
  %10 = load i64, ptr %4, align 8, !tbaa !43
  %11 = inttoptr i64 %10 to ptr
  %12 = load i64, ptr %11, align 8, !tbaa !16, !noalias !239
  %13 = and i64 %12, 8192
  %.not.i.i = icmp eq i64 %13, 0
  %14 = getelementptr inbounds nuw i8, ptr %11, i64 24
  br i1 %.not.i.i, label %RSTRING_PTR.exit, label %15

15:                                               ; preds = %7
  %.sroa.2.0.copyload.i = load ptr, ptr %14, align 8
  br label %RSTRING_PTR.exit

RSTRING_PTR.exit:                                 ; preds = %7, %15
  %.sroa.2.0.i = phi ptr [ %.sroa.2.0.copyload.i, %15 ], [ %14, %7 ]
  %16 = getelementptr inbounds nuw i8, ptr %0, i64 56
  store ptr %.sroa.2.0.i, ptr %16, align 8, !tbaa !47
  %17 = getelementptr inbounds nuw i8, ptr %0, i64 64
  store i32 0, ptr %17, align 8, !tbaa !36
  %18 = tail call i64 @rb_obj_hide(i64 noundef %10) #18
  br label %46

19:                                               ; preds = %3
  %20 = tail call i64 @rb_str_capacity(i64 noundef %5) #22
  %21 = inttoptr i64 %5 to ptr
  %22 = getelementptr inbounds nuw i8, ptr %21, i64 16
  %23 = load i64, ptr %22, align 8, !tbaa !21
  %24 = add nsw i64 %23, %2
  %25 = icmp slt i64 %20, %24
  br i1 %25, label %26, label %28

26:                                               ; preds = %19
  tail call void @rb_str_modify_expand(i64 noundef %5, i64 noundef %2) #18
  %27 = getelementptr inbounds nuw i8, ptr %0, i64 64
  store i32 0, ptr %27, align 8, !tbaa !36
  %.pre = load i64, ptr %4, align 8, !tbaa !43
  br label %35

28:                                               ; preds = %19
  %29 = getelementptr inbounds nuw i8, ptr %0, i64 64
  %30 = load i32, ptr %29, align 8, !tbaa !36
  %31 = trunc i64 %2 to i32
  %.not = icmp ult i32 %30, %31
  br i1 %.not, label %34, label %32

32:                                               ; preds = %28
  %33 = sub nuw i32 %30, %31
  store i32 %33, ptr %29, align 8, !tbaa !36
  br label %35

34:                                               ; preds = %28
  store i32 0, ptr %29, align 8, !tbaa !36
  br label %35

35:                                               ; preds = %32, %34, %26
  %36 = phi i64 [ %5, %32 ], [ %5, %34 ], [ %.pre, %26 ]
  %37 = tail call i64 @rb_str_cat(i64 noundef %36, ptr noundef %1, i64 noundef %2) #18
  %38 = load i64, ptr %4, align 8, !tbaa !43
  %39 = inttoptr i64 %38 to ptr
  %40 = load i64, ptr %39, align 8, !tbaa !16, !noalias !242
  %41 = and i64 %40, 8192
  %.not.i.i27 = icmp eq i64 %41, 0
  %42 = getelementptr inbounds nuw i8, ptr %39, i64 24
  br i1 %.not.i.i27, label %RSTRING_END.exit, label %43

43:                                               ; preds = %35
  %.sroa.5.0.copyload.i = load ptr, ptr %42, align 8
  br label %RSTRING_END.exit

RSTRING_END.exit:                                 ; preds = %35, %43
  %.sroa.5.0.i = phi ptr [ %.sroa.5.0.copyload.i, %43 ], [ %42, %35 ]
  %.sroa.3.0.in.i = getelementptr inbounds nuw i8, ptr %39, i64 16
  %.sroa.3.0.i = load i64, ptr %.sroa.3.0.in.i, align 8, !tbaa !6
  %44 = getelementptr inbounds i8, ptr %.sroa.5.0.i, i64 %.sroa.3.0.i
  %45 = getelementptr inbounds nuw i8, ptr %0, i64 56
  store ptr %44, ptr %45, align 8, !tbaa !47
  br label %46

46:                                               ; preds = %RSTRING_END.exit, %RSTRING_PTR.exit
  ret void
}